; ModuleID = '42/637.c'
source_filename = "42/637.c"
target datalayout = "e-m:e-p270:32:32-p271:32:32-p272:64:64-i64:64-f80:128-n8:16:32:64-S128"
target triple = "x86_64-pc-linux-gnu"

@.str = private unnamed_addr constant [3 x i8] c"%d\00", align 1
@.str.1 = private unnamed_addr constant [4 x i8] c" %d\00", align 1

; Function Attrs: noinline nounwind uwtable
define dso_local i32 @main() #0 {
  %1 = alloca i32, align 4
  %2 = alloca i32, align 4
  %3 = alloca i32*, align 8
  %4 = alloca i32, align 4
  %5 = alloca i32, align 4
  %6 = alloca i8*, align 8
  %7 = alloca i64, align 8
  store i32 0, i32* %1, align 4
  store i32 0, i32* %4, align 4
  %8 = call i32 (i8*, ...) @__isoc99_scanf(i8* getelementptr inbounds ([3 x i8], [3 x i8]* @.str, i64 0, i64 0), i32* %2)
  %9 = load i32, i32* %2, align 4
  %10 = zext i32 %9 to i64
  %11 = call i8* @llvm.stacksave()
  store i8* %11, i8** %6, align 8
  %12 = alloca i32, i64 %10, align 16
  store i64 %10, i64* %7, align 8
  store i32* %12, i32** %3, align 8
  store i32 0, i32* %4, align 4
  br label %13

13:                                               ; preds = %21, %0
  %14 = load i32, i32* %4, align 4
  %15 = load i32, i32* %2, align 4
  %16 = icmp slt i32 %14, %15
  br i1 %16, label %17, label %24

17:                                               ; preds = %13
  %18 = load i32*, i32** %3, align 8
  %19 = getelementptr inbounds i32, i32* %18, i32 1
  store i32* %19, i32** %3, align 8
  %20 = call i32 (i8*, ...) @__isoc99_scanf(i8* getelementptr inbounds ([3 x i8], [3 x i8]* @.str, i64 0, i64 0), i32* %18)
  br label %21

21:                                               ; preds = %17
  %22 = load i32, i32* %4, align 4
  %23 = add nsw i32 %22, 1
  store i32 %23, i32* %4, align 4
  br label %13

24:                                               ; preds = %13
  %25 = call i32 (i8*, ...) @__isoc99_scanf(i8* getelementptr inbounds ([3 x i8], [3 x i8]* @.str, i64 0, i64 0), i32* %5)
  store i32* %12, i32** %3, align 8
  %26 = load i32*, i32** %3, align 8
  br label %27

27:                                               ; preds = %43, %24
  %28 = load i32*, i32** %3, align 8
  %29 = load i32, i32* %2, align 4
  %30 = sext i32 %29 to i64
  %31 = getelementptr inbounds i32, i32* %12, i64 %30
  %32 = icmp ult i32* %28, %31
  br i1 %32, label %33, label %46

33:                                               ; preds = %27
  %34 = load i32*, i32** %3, align 8
  %35 = load i32, i32* %34, align 4
  %36 = load i32, i32* %5, align 4
  %37 = icmp ne i32 %35, %36
  br i1 %37, label %38, label %42

38:                                               ; preds = %33
  %39 = load i32*, i32** %3, align 8
  %40 = load i32, i32* %39, align 4
  %41 = call i32 (i8*, ...) @printf(i8* getelementptr inbounds ([3 x i8], [3 x i8]* @.str, i64 0, i64 0), i32 %40)
  br label %46

42:                                               ; preds = %33
  br label %43

43:                                               ; preds = %42
  %44 = load i32*, i32** %3, align 8
  %45 = getelementptr inbounds i32, i32* %44, i32 1
  store i32* %45, i32** %3, align 8
  br label %27

46:                                               ; preds = %38, %27
  %47 = load i32*, i32** %3, align 8
  %48 = getelementptr inbounds i32, i32* %47, i64 1
  store i32* %48, i32** %3, align 8
  %49 = load i32*, i32** %3, align 8
  br label %50

50:                                               ; preds = %66, %46
  %51 = load i32*, i32** %3, align 8
  %52 = load i32, i32* %2, align 4
  %53 = sext i32 %52 to i64
  %54 = getelementptr inbounds i32, i32* %12, i64 %53
  %55 = icmp ult i32* %51, %54
  br i1 %55, label %56, label %69

56:                                               ; preds = %50
  %57 = load i32*, i32** %3, align 8
  %58 = load i32, i32* %57, align 4
  %59 = load i32, i32* %5, align 4
  %60 = icmp ne i32 %58, %59
  br i1 %60, label %61, label %65

61:                                               ; preds = %56
  %62 = load i32*, i32** %3, align 8
  %63 = load i32, i32* %62, align 4
  %64 = call i32 (i8*, ...) @printf(i8* getelementptr inbounds ([4 x i8], [4 x i8]* @.str.1, i64 0, i64 0), i32 %63)
  br label %65

65:                                               ; preds = %61, %56
  br label %66

66:                                               ; preds = %65
  %67 = load i32*, i32** %3, align 8
  %68 = getelementptr inbounds i32, i32* %67, i32 1
  store i32* %68, i32** %3, align 8
  br label %50

69:                                               ; preds = %50
  %70 = load i8*, i8** %6, align 8
  call void @llvm.stackrestore(i8* %70)
  %71 = load i32, i32* %1, align 4
  ret i32 %71
}

declare dso_local i32 @__isoc99_scanf(i8*, ...) #1

; Function Attrs: nounwind
declare i8* @llvm.stacksave() #2

declare dso_local i32 @printf(i8*, ...) #1

; Function Attrs: nounwind
declare void @llvm.stackrestore(i8*) #2


!llvm.module.flags = !{!0}
!llvm.ident = !{!1}

!0 = !{i32 1, !"wchar_size", i32 4}
!1 = !{!"clang version 10.0.0-4ubuntu1 "}
