; ModuleID = 'source-C-CXX/41/637.c'
source_filename = "source-C-CXX/41/637.c"
target datalayout = "e-m:e-p270:32:32-p271:32:32-p272:64:64-i64:64-f80:128-n8:16:32:64-S128"
target triple = "x86_64-pc-linux-gnu"

@.str = private unnamed_addr constant [3 x i8] c"%d\00", align 1
@.str.1 = private unnamed_addr constant [4 x i8] c" %d\00", align 1

; Function Attrs: nofree nounwind sspstrong uwtable
define dso_local i32 @main() local_unnamed_addr #0 {
  %1 = alloca i32, align 4
  %2 = alloca i32, align 4
  %3 = bitcast i32* %1 to i8*
  call void @llvm.lifetime.start.p0i8(i64 4, i8* nonnull %3) #4
  %4 = bitcast i32* %2 to i8*
  call void @llvm.lifetime.start.p0i8(i64 4, i8* nonnull %4) #4
  %5 = call i32 (i8*, ...) @__isoc99_scanf(i8* getelementptr inbounds ([3 x i8], [3 x i8]* @.str, i64 0, i64 0), i32* nonnull %1)
  %6 = load i32, i32* %1, align 4, !tbaa !5
  %7 = zext i32 %6 to i64
  %8 = call i8* @llvm.stacksave()
  %9 = alloca i32, i64 %7, align 16
  %10 = load i32, i32* %1, align 4, !tbaa !5
  %11 = icmp sgt i32 %10, 0
  br i1 %11, label %12, label %20

12:                                               ; preds = %0, %12
  %13 = phi i32* [ %15, %12 ], [ %9, %0 ]
  %14 = phi i32 [ %17, %12 ], [ 0, %0 ]
  %15 = getelementptr inbounds i32, i32* %13, i64 1
  %16 = call i32 (i8*, ...) @__isoc99_scanf(i8* getelementptr inbounds ([3 x i8], [3 x i8]* @.str, i64 0, i64 0), i32* nonnull %13)
  %17 = add nuw nsw i32 %14, 1
  %18 = load i32, i32* %1, align 4, !tbaa !5
  %19 = icmp slt i32 %17, %18
  br i1 %19, label %12, label %20, !llvm.loop !9

20:                                               ; preds = %12, %0
  %21 = call i32 (i8*, ...) @__isoc99_scanf(i8* getelementptr inbounds ([3 x i8], [3 x i8]* @.str, i64 0, i64 0), i32* nonnull %2)
  %22 = load i32, i32* %1, align 4, !tbaa !5
  %23 = sext i32 %22 to i64
  %24 = getelementptr inbounds i32, i32* %9, i64 %23
  %25 = load i32, i32* %2, align 4
  %26 = icmp sgt i32 %22, 0
  br i1 %26, label %27, label %38

27:                                               ; preds = %20, %35
  %28 = phi i32* [ %36, %35 ], [ %9, %20 ]
  %29 = load i32, i32* %28, align 4, !tbaa !5
  %30 = icmp eq i32 %29, %25
  br i1 %30, label %35, label %31

31:                                               ; preds = %27
  %32 = call i32 (i8*, ...) @printf(i8* nonnull dereferenceable(1) getelementptr inbounds ([3 x i8], [3 x i8]* @.str, i64 0, i64 0), i32 %29)
  %33 = load i32, i32* %1, align 4, !tbaa !5
  %34 = sext i32 %33 to i64
  br label %38

35:                                               ; preds = %27
  %36 = getelementptr inbounds i32, i32* %28, i64 1
  %37 = icmp ult i32* %36, %24
  br i1 %37, label %27, label %38, !llvm.loop !11

38:                                               ; preds = %35, %20, %31
  %39 = phi i64 [ %23, %20 ], [ %34, %31 ], [ %23, %35 ]
  %40 = phi i32 [ %22, %20 ], [ %33, %31 ], [ %22, %35 ]
  %41 = phi i32* [ %9, %20 ], [ %28, %31 ], [ %36, %35 ]
  %42 = getelementptr inbounds i32, i32* %41, i64 1
  %43 = getelementptr inbounds i32, i32* %9, i64 %39
  %44 = icmp ult i32* %42, %43
  br i1 %44, label %45, label %60

45:                                               ; preds = %38, %54
  %46 = phi i32 [ %55, %54 ], [ %40, %38 ]
  %47 = phi i32* [ %56, %54 ], [ %42, %38 ]
  %48 = load i32, i32* %47, align 4, !tbaa !5
  %49 = load i32, i32* %2, align 4, !tbaa !5
  %50 = icmp eq i32 %48, %49
  br i1 %50, label %54, label %51

51:                                               ; preds = %45
  %52 = call i32 (i8*, ...) @printf(i8* nonnull dereferenceable(1) getelementptr inbounds ([4 x i8], [4 x i8]* @.str.1, i64 0, i64 0), i32 %48)
  %53 = load i32, i32* %1, align 4, !tbaa !5
  br label %54

54:                                               ; preds = %45, %51
  %55 = phi i32 [ %46, %45 ], [ %53, %51 ]
  %56 = getelementptr inbounds i32, i32* %47, i64 1
  %57 = sext i32 %55 to i64
  %58 = getelementptr inbounds i32, i32* %9, i64 %57
  %59 = icmp ult i32* %56, %58
  br i1 %59, label %45, label %60, !llvm.loop !12

60:                                               ; preds = %54, %38
  call void @llvm.stackrestore(i8* %8)
  call void @llvm.lifetime.end.p0i8(i64 4, i8* nonnull %4) #4
  call void @llvm.lifetime.end.p0i8(i64 4, i8* nonnull %3) #4
  ret i32 0
}

; Function Attrs: argmemonly mustprogress nofree nosync nounwind willreturn
declare void @llvm.lifetime.start.p0i8(i64 immarg, i8* nocapture) #1

; Function Attrs: nofree nounwind
declare noundef i32 @__isoc99_scanf(i8* nocapture noundef readonly, ...) local_unnamed_addr #2

; Function Attrs: mustprogress nofree nosync nounwind willreturn
declare i8* @llvm.stacksave() #3

; Function Attrs: nofree nounwind
declare noundef i32 @printf(i8* nocapture noundef readonly, ...) local_unnamed_addr #2

; Function Attrs: mustprogress nofree nosync nounwind willreturn
declare void @llvm.stackrestore(i8*) #3

; Function Attrs: argmemonly mustprogress nofree nosync nounwind willreturn
declare void @llvm.lifetime.end.p0i8(i64 immarg, i8* nocapture) #1


!llvm.module.flags = !{!0, !1, !2, !3}
!llvm.ident = !{!4}

!0 = !{i32 1, !"wchar_size", i32 4}
!1 = !{i32 7, !"PIC Level", i32 2}
!2 = !{i32 7, !"PIE Level", i32 2}
!3 = !{i32 7, !"uwtable", i32 1}
!4 = !{!"clang version 13.0.0"}
!5 = !{!6, !6, i64 0}
!6 = !{!"int", !7, i64 0}
!7 = !{!"omnipotent char", !8, i64 0}
!8 = !{!"Simple C/C++ TBAA"}
!9 = distinct !{!9, !10}
!10 = !{!"llvm.loop.mustprogress"}
!11 = distinct !{!11, !10}
!12 = distinct !{!12, !10}
